; Function Attrs: mustprogress uwtable
define void @_ZN9grpc_core14SubchannelCall7DestroyEPvN4absl12lts_202308026StatusE(ptr noundef %arg, ptr nocapture readnone %0) #3 align 2 personality ptr @__gxx_personality_v0 {
_ZN9grpc_core14SubchannelCallD2Ev.exit:
  %after_call_stack_destroy_ = getelementptr inbounds i8, ptr %arg, i64 8
  %1 = load ptr, ptr %after_call_stack_destroy_, align 8
  %2 = load ptr, ptr %arg, align 8
  store ptr null, ptr %arg, align 8
  %add.ptr = getelementptr inbounds i8, ptr %arg, i64 80
  invoke void @_Z23grpc_call_stack_destroyP15grpc_call_stackPK20grpc_call_final_infoP12grpc_closure(ptr noundef nonnull %add.ptr, ptr noundef null, ptr noundef %1)
          to label %invoke.cont unwind label %lpad

invoke.cont:                                      ; preds = %_ZN9grpc_core14SubchannelCallD2Ev.exit
  %cmp.not.i = icmp eq ptr %2, null
  br i1 %cmp.not.i, label %_ZN9grpc_core13RefCountedPtrINS_19ConnectedSubchannelEED2Ev.exit, label %if.then.i

if.then.i:                                        ; preds = %invoke.cont
  %refs_.i.i = getelementptr inbounds i8, ptr %2, i64 8
  %3 = atomicrmw sub ptr %refs_.i.i, i64 1 acq_rel, align 8
  %cmp.i.i.i = icmp eq i64 %3, 1
  br i1 %cmp.i.i.i, label %if.then.i.i4, label %_ZN9grpc_core13RefCountedPtrINS_19ConnectedSubchannelEED2Ev.exit

if.then.i.i4:                                     ; preds = %if.then.i
  %vtable.i.i.i = load ptr, ptr %2, align 8
  %vfn.i.i.i = getelementptr inbounds i8, ptr %vtable.i.i.i, i64 8
  %4 = load ptr, ptr %vfn.i.i.i, align 8
  tail call void %4(ptr noundef nonnull align 8 dereferenceable(40) %2) #26
  br label %_ZN9grpc_core13RefCountedPtrINS_19ConnectedSubchannelEED2Ev.exit

_ZN9grpc_core13RefCountedPtrINS_19ConnectedSubchannelEED2Ev.exit: ; preds = %invoke.cont, %if.then.i, %if.then.i.i4
  ret void

lpad:                                             ; preds = %_ZN9grpc_core14SubchannelCallD2Ev.exit
  %5 = landingpad { ptr, i32 }
          cleanup
  %cmp.not.i5 = icmp eq ptr %2, null
  br i1 %cmp.not.i5, label %_ZN9grpc_core13RefCountedPtrINS_19ConnectedSubchannelEED2Ev.exit12, label %if.then.i6

if.then.i6:                                       ; preds = %lpad
  %refs_.i.i7 = getelementptr inbounds i8, ptr %2, i64 8
  %6 = atomicrmw sub ptr %refs_.i.i7, i64 1 acq_rel, align 8
  %cmp.i.i.i8 = icmp eq i64 %6, 1
  br i1 %cmp.i.i.i8, label %if.then.i.i9, label %_ZN9grpc_core13RefCountedPtrINS_19ConnectedSubchannelEED2Ev.exit12

if.then.i.i9:                                     ; preds = %if.then.i6
  %vtable.i.i.i10 = load ptr, ptr %2, align 8
  %vfn.i.i.i11 = getelementptr inbounds i8, ptr %vtable.i.i.i10, i64 8
  %7 = load ptr, ptr %vfn.i.i.i11, align 8
  tail call void %7(ptr noundef nonnull align 8 dereferenceable(40) %2) #26
  br label %_ZN9grpc_core13RefCountedPtrINS_19ConnectedSubchannelEED2Ev.exit12

_ZN9grpc_core13RefCountedPtrINS_19ConnectedSubchannelEED2Ev.exit12: ; preds = %lpad, %if.then.i6, %if.then.i.i9
  resume { ptr, i32 } %5
}